Certificate:
    Data:
        Version: 3 (0x2)
        Serial Number: 11901 (0x2e7d)
        Signature Algorithm: sha256WithRSAEncryption
        Issuer: C=US, ST=Washington, L=Seattle, O=getaCert - www.getacert.com
        Validity
            Not Before: Dec 15 10:36:31 2023 GMT
            Not After : Feb 13 10:36:31 2024 GMT
        Subject: C=DE, ST=Frankfurt, L=Dortmund, O=Kaeyros Analytics GMBH, OU=Data scientist, CN=v2202211186717206474.powersrv.de/emailAddress=info@kaeyros-analytics.de
        Subject Public Key Info:
            Public Key Algorithm: rsaEncryption
                RSA Public-Key: (2048 bit)
                Modulus:
                    00:d2:c1:8a:eb:32:12:ed:48:c3:4c:55:cd:fd:45:
                    10:b4:d5:77:9d:23:69:4a:73:4d:4f:5a:23:bd:bc:
                    ad:a1:92:b2:5f:3a:73:73:7e:dd:08:39:53:08:50:
                    d0:ac:86:78:58:60:35:14:82:10:b4:37:3e:8b:ca:
                    36:c3:a3:03:75:17:82:b0:8c:aa:51:40:e5:10:a3:
                    98:81:31:5d:5e:c4:3b:78:d4:a6:36:d8:4b:fc:e0:
                    64:21:ce:94:63:60:54:3e:48:74:78:01:77:81:53:
                    c8:1d:6d:2a:dd:62:13:3a:13:51:d4:a0:6c:28:bc:
                    3c:c9:32:21:31:d0:c7:c8:4f:fc:c9:9b:d4:1c:f2:
                    db:31:77:56:fd:88:59:ad:41:98:6b:ba:f4:d6:41:
                    52:1a:27:f2:ec:4c:ee:39:af:98:66:b7:41:30:e5:
                    ca:6e:57:7b:75:2d:d4:68:0d:3c:2b:31:09:65:bf:
                    48:ea:c2:7b:81:3e:60:0c:0e:6a:8a:56:07:75:e6:
                    28:5f:47:46:64:40:98:bb:41:52:8d:df:e5:fe:d0:
                    56:c0:c1:ec:a7:73:e7:95:09:60:d7:cd:8c:98:30:
                    d0:7d:a6:b7:76:56:8f:4a:48:83:50:65:e6:63:5f:
                    ef:b5:bf:94:35:4d:9b:72:81:13:2a:ba:bf:98:36:
                    86:47
                Exponent: 65537 (0x10001)
        X509v3 extensions:
            X509v3 Basic Constraints: 
                CA:FALSE
            Netscape Cert Type: 
                SSL Client, SSL Server, S/MIME, Object Signing
            X509v3 Key Usage: 
                Digital Signature, Key Encipherment
            X509v3 Extended Key Usage: 
                TLS Web Client Authentication, TLS Web Server Authentication
    Signature Algorithm: sha256WithRSAEncryption
         14:25:ad:c3:a3:5e:90:1d:19:dc:e8:35:55:96:64:11:aa:69:
         5f:81:27:e9:5f:50:17:32:e2:da:15:14:d5:b2:aa:44:11:8a:
         71:99:fd:8c:d2:9a:c1:db:8b:83:d2:90:30:8b:57:ea:48:83:
         b5:4a:ef:db:b0:b0:a6:fd:fe:60:31:a8:7b:74:c5:bd:82:8b:
         51:b7:65:16:e5:2f:44:0f:9f:41:44:5b:9e:32:78:29:d6:ab:
         aa:8e:d1:bc:b6:d2:d5:83:90:5b:af:16:b6:01:65:7f:22:f1:
         06:9e:a7:f0:f8:2b:d2:01:c8:44:77:6b:84:f1:b4:b9:d5:38:
         8d:79:52:61:12:49:da:da:ce:dd:0a:50:e4:aa:71:e1:27:33:
         a8:07:d7:71:0a:07:62:d5:c7:21:57:00:98:0f:d5:af:79:e6:
         ee:3a:8c:8c:7e:ea:46:4b:ee:6a:7f:3c:ac:50:9b:52:a7:a8:
         9e:cb:77:ce:24:a8:d3:77:8a:fe:f7:24:84:9f:66:87:ee:f9:
         85:8f:74:f8:23:21:99:8a:c0:a3:47:a3:9d:5d:83:f4:90:d9:
         4c:4d:8a:43:d6:ca:39:07:35:23:a4:b7:08:b6:a1:81:27:11:
         58:9d:bd:a7:c3:41:54:42:15:3a:85:21:1f:a2:26:b3:05:9b:
         60:08:c9:22
-----BEGIN CERTIFICATE-----
MIID5jCCAs6gAwIBAgICLn0wDQYJKoZIhvcNAQELBQAwWjELMAkGA1UEBhMCVVMx
EzARBgNVBAgTCldhc2hpbmd0b24xEDAOBgNVBAcTB1NlYXR0bGUxJDAiBgNVBAoT
G2dldGFDZXJ0IC0gd3d3LmdldGFjZXJ0LmNvbTAeFw0yMzEyMTUxMDM2MzFaFw0y
NDAyMTMxMDM2MzFaMIHDMQswCQYDVQQGEwJERTESMBAGA1UECAwJRnJhbmtmdXJ0
MREwDwYDVQQHDAhEb3J0bXVuZDEfMB0GA1UECgwWS2FleXJvcyBBbmFseXRpY3Mg
R01CSDEXMBUGA1UECwwORGF0YSBzY2llbnRpc3QxKTAnBgNVBAMMIHYyMjAyMjEx
MTg2NzE3MjA2NDc0LnBvd2Vyc3J2LmRlMSgwJgYJKoZIhvcNAQkBFhlpbmZvQGth
ZXlyb3MtYW5hbHl0aWNzLmRlMIIBIjANBgkqhkiG9w0BAQEFAAOCAQ8AMIIBCgKC
AQEA0sGK6zIS7UjDTFXN/UUQtNV3nSNpSnNNT1ojvbytoZKyXzpzc37dCDlTCFDQ
rIZ4WGA1FIIQtDc+i8o2w6MDdReCsIyqUUDlEKOYgTFdXsQ7eNSmNthL/OBkIc6U
Y2BUPkh0eAF3gVPIHW0q3WITOhNR1KBsKLw8yTIhMdDHyE/8yZvUHPLbMXdW/YhZ
rUGYa7r01kFSGify7EzuOa+YZrdBMOXKbld7dS3UaA08KzEJZb9I6sJ7gT5gDA5q
ilYHdeYoX0dGZECYu0FSjd/l/tBWwMHsp3PnlQlg182MmDDQfaa3dlaPSkiDUGXm
Y1/vtb+UNU2bcoETKrq/mDaGRwIDAQABo0wwSjAJBgNVHRMEAjAAMBEGCWCGSAGG
+EIBAQQEAwIE8DALBgNVHQ8EBAMCBaAwHQYDVR0lBBYwFAYIKwYBBQUHAwIGCCsG
AQUFBwMBMA0GCSqGSIb3DQEBCwUAA4IBAQAUJa3Do16QHRnc6DVVlmQRqmlfgSfp
X1AXMuLaFRTVsqpEEYpxmf2M0prB24uD0pAwi1fqSIO1Su/bsLCm/f5gMah7dMW9
gotRt2UW5S9ED59BRFueMngp1quqjtG8ttLVg5Bbrxa2AWV/IvEGnqfw+CvSAchE
d2uE8bS51TiNeVJhEkna2s7dClDkqnHhJzOoB9dxCgdi1cchVwCYD9WveebuOoyM
fupGS+5qfzysUJtSp6iey3fOJKjTd4r+9ySEn2aH7vmFj3T4IyGZisCjR6OdXYP0
kNlMTYpD1so5BzUjpLcItqGBJxFYnb2nw0FUQhU6hSEfoiazBZtgCMki
-----END CERTIFICATE-----
